; Function Attrs: nofree norecurse nosync nounwind memory(readwrite, inaccessiblemem: none) uwtable
define void @save_vlist(ptr noundef readonly captures(none) %0) local_unnamed_addr #6 {
  %2 = getelementptr inbounds nuw i8, ptr %0, i64 16
  %3 = load ptr, ptr %2, align 8, !tbaa !3
  %4 = getelementptr inbounds nuw i8, ptr %3, i64 384
  %5 = load ptr, ptr %4, align 8, !tbaa !148
  %.not = icmp eq ptr %5, null
  br i1 %.not, label %.loopexit, label %6

6:                                                ; preds = %1
  %7 = getelementptr inbounds nuw i8, ptr %3, i64 336
  %8 = load i32, ptr %7, align 8, !tbaa !12
  %9 = getelementptr inbounds nuw i8, ptr %3, i64 340
  %10 = load i32, ptr %9, align 4, !tbaa !32
  %.not89 = icmp sgt i32 %8, %10
  br i1 %.not89, label %.loopexit, label %.lr.ph

.lr.ph:                                           ; preds = %6
  %11 = getelementptr inbounds nuw i8, ptr %3, i64 264
  %12 = load ptr, ptr %11, align 8, !tbaa !33
  %13 = sext i32 %8 to i64
  %14 = add i32 %10, 1
  br label %15

15:                                               ; preds = %.lr.ph, %15
  %indvars.iv = phi i64 [ %13, %.lr.ph ], [ %indvars.iv.next, %15 ]
  %16 = getelementptr inbounds %struct.rank_t, ptr %12, i64 %indvars.iv, i32 1
  %17 = load ptr, ptr %16, align 8, !tbaa !37
  %18 = load ptr, ptr %17, align 8, !tbaa !38
  %19 = getelementptr inbounds ptr, ptr %5, i64 %indvars.iv
  store ptr %18, ptr %19, align 8, !tbaa !38
  %indvars.iv.next = add nsw i64 %indvars.iv, 1
  %lftr.wideiv = trunc i64 %indvars.iv.next to i32
  %exitcond.not = icmp eq i32 %14, %lftr.wideiv
  br i1 %exitcond.not, label %.loopexit, label %15, !llvm.loop !149

.loopexit:                                        ; preds = %15, %6, %1
  ret void
}